target datalayout = "e-m:e-p270:32:32-p271:32:32-p272:64:64-i64:64-i128:128-f80:128-n8:16:32:64-S128"
target triple = "x86_64-pc-linux-gnu"

@.str.43 = private unnamed_addr constant [5 x i8] c"K\7F\01\02\00", align 1
@.str.44 = private unnamed_addr constant [5 x i8] c"\02\01\7FK\00", align 1
@.str.45 = private unnamed_addr constant [9 x i8] c"C?\FF\01\02\03\04\05\00", align 1
@.str.46 = private unnamed_addr constant [9 x i8] c"\05\04\03\02\01\FF?C\00", align 1

; Function Attrs: nounwind uwtable
define internal i32 @typecode_to_mformat_code(i8 noundef signext %0) #0 {
  %2 = alloca i32, align 4
  %3 = alloca i8, align 1
  %4 = alloca i32, align 4
  %5 = alloca i64, align 8
  %6 = alloca i32, align 4
  %7 = alloca i32, align 4
  %8 = alloca float, align 4
  %9 = alloca double, align 8
  store i8 %0, ptr %3, align 1, !tbaa !36
  call void @llvm.lifetime.start.p0(i64 4, ptr %4) #8
  store i32 0, ptr %4, align 4, !tbaa !12
  call void @llvm.lifetime.start.p0(i64 8, ptr %5) #8
  call void @llvm.lifetime.start.p0(i64 4, ptr %6) #8
  %10 = load i8, ptr %3, align 1, !tbaa !36
  %11 = sext i8 %10 to i32
  switch i32 %11, label %48 [
    i32 98, label %12
    i32 66, label %13
    i32 117, label %14
    i32 119, label %15
    i32 102, label %16
    i32 100, label %28
    i32 104, label %40
    i32 72, label %41
    i32 105, label %42
    i32 73, label %43
    i32 108, label %44
    i32 76, label %45
    i32 113, label %46
    i32 81, label %47
  ]

12:                                               ; preds = %1
  store i32 1, ptr %2, align 4
  store i32 1, ptr %7, align 4
  br label %64

13:                                               ; preds = %1
  store i32 0, ptr %2, align 4
  store i32 1, ptr %7, align 4
  br label %64

14:                                               ; preds = %1
  store i32 20, ptr %2, align 4
  store i32 1, ptr %7, align 4
  br label %64

15:                                               ; preds = %1
  store i32 20, ptr %2, align 4
  store i32 1, ptr %7, align 4
  br label %64

16:                                               ; preds = %1
  call void @llvm.lifetime.start.p0(i64 4, ptr %8) #8
  store float 0x416FE02040000000, ptr %8, align 4, !tbaa !58
  %17 = call i32 @memcmp(ptr noundef %8, ptr noundef @.str.43, i64 noundef 4) #9
  %18 = icmp eq i32 %17, 0
  br i1 %18, label %19, label %20

19:                                               ; preds = %16
  store i32 15, ptr %2, align 4
  store i32 1, ptr %7, align 4
  br label %25

20:                                               ; preds = %16
  %21 = call i32 @memcmp(ptr noundef %8, ptr noundef @.str.44, i64 noundef 4) #9
  %22 = icmp eq i32 %21, 0
  br i1 %22, label %23, label %24

23:                                               ; preds = %20
  store i32 14, ptr %2, align 4
  store i32 1, ptr %7, align 4
  br label %25

24:                                               ; preds = %20
  store i32 0, ptr %7, align 4
  br label %25

25:                                               ; preds = %24, %23, %19
  call void @llvm.lifetime.end.p0(i64 4, ptr %8) #8
  %26 = load i32, ptr %7, align 4
  switch i32 %26, label %64 [
    i32 0, label %27
  ]

27:                                               ; preds = %25
  store i32 -1, ptr %2, align 4
  store i32 1, ptr %7, align 4
  br label %64

28:                                               ; preds = %1
  call void @llvm.lifetime.start.p0(i64 8, ptr %9) #8
  store double 0x433FFF0102030405, ptr %9, align 8, !tbaa !60
  %29 = call i32 @memcmp(ptr noundef %9, ptr noundef @.str.45, i64 noundef 8) #9
  %30 = icmp eq i32 %29, 0
  br i1 %30, label %31, label %32

31:                                               ; preds = %28
  store i32 17, ptr %2, align 4
  store i32 1, ptr %7, align 4
  br label %37

32:                                               ; preds = %28
  %33 = call i32 @memcmp(ptr noundef %9, ptr noundef @.str.46, i64 noundef 8) #9
  %34 = icmp eq i32 %33, 0
  br i1 %34, label %35, label %36

35:                                               ; preds = %32
  store i32 16, ptr %2, align 4
  store i32 1, ptr %7, align 4
  br label %37

36:                                               ; preds = %32
  store i32 0, ptr %7, align 4
  br label %37

37:                                               ; preds = %36, %35, %31
  call void @llvm.lifetime.end.p0(i64 8, ptr %9) #8
  %38 = load i32, ptr %7, align 4
  switch i32 %38, label %64 [
    i32 0, label %39
  ]

39:                                               ; preds = %37
  store i32 -1, ptr %2, align 4
  store i32 1, ptr %7, align 4
  br label %64

40:                                               ; preds = %1
  store i64 2, ptr %5, align 8, !tbaa !21
  store i32 1, ptr %6, align 4, !tbaa !12
  br label %49

41:                                               ; preds = %1
  store i64 2, ptr %5, align 8, !tbaa !21
  store i32 0, ptr %6, align 4, !tbaa !12
  br label %49

42:                                               ; preds = %1
  store i64 4, ptr %5, align 8, !tbaa !21
  store i32 1, ptr %6, align 4, !tbaa !12
  br label %49

43:                                               ; preds = %1
  store i64 4, ptr %5, align 8, !tbaa !21
  store i32 0, ptr %6, align 4, !tbaa !12
  br label %49

44:                                               ; preds = %1
  store i64 8, ptr %5, align 8, !tbaa !21
  store i32 1, ptr %6, align 4, !tbaa !12
  br label %49

45:                                               ; preds = %1
  store i64 8, ptr %5, align 8, !tbaa !21
  store i32 0, ptr %6, align 4, !tbaa !12
  br label %49

46:                                               ; preds = %1
  store i64 8, ptr %5, align 8, !tbaa !21
  store i32 1, ptr %6, align 4, !tbaa !12
  br label %49

47:                                               ; preds = %1
  store i64 8, ptr %5, align 8, !tbaa !21
  store i32 0, ptr %6, align 4, !tbaa !12
  br label %49

48:                                               ; preds = %1
  store i32 -1, ptr %2, align 4
  store i32 1, ptr %7, align 4
  br label %64

49:                                               ; preds = %47, %46, %45, %44, %43, %42, %41, %40
  %50 = load i64, ptr %5, align 8, !tbaa !21
  switch i64 %50, label %63 [
    i64 2, label %51
    i64 4, label %55
    i64 8, label %59
  ]

51:                                               ; preds = %49
  %52 = load i32, ptr %6, align 4, !tbaa !12
  %53 = mul i32 2, %52
  %54 = add i32 2, %53
  store i32 %54, ptr %2, align 4
  store i32 1, ptr %7, align 4
  br label %64

55:                                               ; preds = %49
  %56 = load i32, ptr %6, align 4, !tbaa !12
  %57 = mul i32 2, %56
  %58 = add i32 6, %57
  store i32 %58, ptr %2, align 4
  store i32 1, ptr %7, align 4
  br label %64

59:                                               ; preds = %49
  %60 = load i32, ptr %6, align 4, !tbaa !12
  %61 = mul i32 2, %60
  %62 = add i32 10, %61
  store i32 %62, ptr %2, align 4
  store i32 1, ptr %7, align 4
  br label %64

63:                                               ; preds = %49
  store i32 -1, ptr %2, align 4
  store i32 1, ptr %7, align 4
  br label %64

64:                                               ; preds = %63, %59, %55, %51, %48, %39, %37, %27, %25, %15, %14, %13, %12
  call void @llvm.lifetime.end.p0(i64 4, ptr %6) #8
  call void @llvm.lifetime.end.p0(i64 8, ptr %5) #8
  call void @llvm.lifetime.end.p0(i64 4, ptr %4) #8
  %65 = load i32, ptr %2, align 4
  ret i32 %65
}