; Function Attrs: mustprogress nofree norecurse nosync nounwind willreturn memory(none) uwtable
define internal fastcc range(i32 -1, 21) i32 @typecode_to_mformat_code(i8 noundef signext %0) unnamed_addr #3 {
  switch i8 %0, label %9 [
    i8 98, label %13
    i8 66, label %2
    i8 117, label %3
    i8 119, label %3
    i8 102, label %4
    i8 100, label %5
    i8 104, label %10
    i8 72, label %6
    i8 105, label %11
    i8 73, label %7
    i8 108, label %12
    i8 76, label %8
    i8 113, label %12
    i8 81, label %8
  ]

2:                                                ; preds = %1
  br label %13

3:                                                ; preds = %1, %1
  br label %13

4:                                                ; preds = %1
  br label %13

5:                                                ; preds = %1
  br label %13

6:                                                ; preds = %1
  br label %13

7:                                                ; preds = %1
  br label %13

8:                                                ; preds = %1, %1
  br label %13

9:                                                ; preds = %1
  br label %13

10:                                               ; preds = %1
  br label %13

11:                                               ; preds = %1
  br label %13

12:                                               ; preds = %1, %1
  br label %13

13:                                               ; preds = %8, %7, %6, %5, %4, %1, %12, %11, %10, %9, %3, %2
  %.011 = phi i32 [ -1, %9 ], [ 20, %3 ], [ 0, %2 ], [ 1, %1 ], [ 14, %4 ], [ 16, %5 ], [ 2, %6 ], [ 4, %10 ], [ 6, %7 ], [ 8, %11 ], [ 10, %8 ], [ 12, %12 ]
  ret i32 %.011
}